; ModuleID = 'source-C-CXX/44/600.c'
source_filename = "source-C-CXX/44/600.c"
target datalayout = "e-m:e-p270:32:32-p271:32:32-p272:64:64-i64:64-f80:128-n8:16:32:64-S128"
target triple = "x86_64-pc-linux-gnu"

@.str = private unnamed_addr constant [6 x i8] c"%s %s\00", align 1
@.str.1 = private unnamed_addr constant [3 x i8] c"%d\00", align 1

; Function Attrs: nofree nounwind sspstrong uwtable
define dso_local void @main() local_unnamed_addr #0 {
  %1 = alloca [50 x i8], align 16
  %2 = alloca [50 x i8], align 16
  %3 = getelementptr inbounds [50 x i8], [50 x i8]* %1, i64 0, i64 0
  call void @llvm.lifetime.start.p0i8(i64 50, i8* nonnull %3) #5
  %4 = getelementptr inbounds [50 x i8], [50 x i8]* %2, i64 0, i64 0
  call void @llvm.lifetime.start.p0i8(i64 50, i8* nonnull %4) #5
  %5 = call i32 (i8*, ...) @__isoc99_scanf(i8* getelementptr inbounds ([6 x i8], [6 x i8]* @.str, i64 0, i64 0), i8* nonnull %3, i8* nonnull %4)
  %6 = call i64 @strlen(i8* noundef nonnull %3) #6
  %7 = trunc i64 %6 to i32
  %8 = load i8, i8* %3, align 16
  %9 = load i8, i8* %4, align 16, !tbaa !5
  %10 = icmp eq i8 %9, 0
  br i1 %10, label %51, label %11

11:                                               ; preds = %0
  %12 = icmp sgt i32 %7, 0
  br label %13

13:                                               ; preds = %11, %44
  %14 = phi i32 [ 1, %11 ], [ %50, %44 ]
  %15 = phi i32 [ %7, %11 ], [ %49, %44 ]
  %16 = phi i64 [ 0, %11 ], [ %45, %44 ]
  %17 = phi i8 [ %9, %11 ], [ %47, %44 ]
  %18 = call i32 @llvm.smax.i32(i32 %15, i32 %14)
  %19 = icmp eq i8 %17, %8
  br i1 %19, label %20, label %44

20:                                               ; preds = %13
  %21 = trunc i64 %16 to i32
  %22 = add nsw i32 %21, %7
  %23 = sub nsw i64 0, %16
  br i1 %12, label %24, label %38

24:                                               ; preds = %20, %32
  %25 = phi i64 [ %33, %32 ], [ %16, %20 ]
  %26 = getelementptr inbounds [50 x i8], [50 x i8]* %2, i64 0, i64 %25
  %27 = load i8, i8* %26, align 1, !tbaa !5
  %28 = getelementptr inbounds [50 x i8], [50 x i8]* %1, i64 0, i64 %25
  %29 = getelementptr inbounds i8, i8* %28, i64 %23
  %30 = load i8, i8* %29, align 1, !tbaa !5
  %31 = icmp eq i8 %27, %30
  br i1 %31, label %32, label %36

32:                                               ; preds = %24
  %33 = add nuw i64 %25, 1
  %34 = trunc i64 %33 to i32
  %35 = icmp sgt i32 %22, %34
  br i1 %35, label %24, label %38, !llvm.loop !8

36:                                               ; preds = %24
  %37 = trunc i64 %25 to i32
  br label %38

38:                                               ; preds = %32, %36, %20
  %39 = phi i32 [ %21, %20 ], [ %37, %36 ], [ %18, %32 ]
  %40 = icmp eq i32 %39, %22
  br i1 %40, label %41, label %44

41:                                               ; preds = %38
  %42 = trunc i64 %16 to i32
  %43 = call i32 (i8*, ...) @printf(i8* nonnull dereferenceable(1) getelementptr inbounds ([3 x i8], [3 x i8]* @.str.1, i64 0, i64 0), i32 %42)
  br label %51

44:                                               ; preds = %13, %38
  %45 = add nuw i64 %16, 1
  %46 = getelementptr inbounds [50 x i8], [50 x i8]* %2, i64 0, i64 %45
  %47 = load i8, i8* %46, align 1, !tbaa !5
  %48 = icmp eq i8 %47, 0
  %49 = add i32 %15, 1
  %50 = add nuw i32 %14, 1
  br i1 %48, label %51, label %13, !llvm.loop !10

51:                                               ; preds = %44, %0, %41
  call void @llvm.lifetime.end.p0i8(i64 50, i8* nonnull %4) #5
  call void @llvm.lifetime.end.p0i8(i64 50, i8* nonnull %3) #5
  ret void
}

; Function Attrs: argmemonly mustprogress nofree nosync nounwind willreturn
declare void @llvm.lifetime.start.p0i8(i64 immarg, i8* nocapture) #1

; Function Attrs: nofree nounwind
declare noundef i32 @__isoc99_scanf(i8* nocapture noundef readonly, ...) local_unnamed_addr #2

; Function Attrs: argmemonly mustprogress nofree nounwind readonly willreturn
declare i64 @strlen(i8* nocapture) local_unnamed_addr #3

; Function Attrs: nofree nounwind
declare noundef i32 @printf(i8* nocapture noundef readonly, ...) local_unnamed_addr #2

; Function Attrs: argmemonly mustprogress nofree nosync nounwind willreturn
declare void @llvm.lifetime.end.p0i8(i64 immarg, i8* nocapture) #1

; Function Attrs: nofree nosync nounwind readnone speculatable willreturn
declare i32 @llvm.smax.i32(i32, i32) #4


!llvm.module.flags = !{!0, !1, !2, !3}
!llvm.ident = !{!4}

!0 = !{i32 1, !"wchar_size", i32 4}
!1 = !{i32 7, !"PIC Level", i32 2}
!2 = !{i32 7, !"PIE Level", i32 2}
!3 = !{i32 7, !"uwtable", i32 1}
!4 = !{!"clang version 13.0.0"}
!5 = !{!6, !6, i64 0}
!6 = !{!"omnipotent char", !7, i64 0}
!7 = !{!"Simple C/C++ TBAA"}
!8 = distinct !{!8, !9}
!9 = !{!"llvm.loop.mustprogress"}
!10 = distinct !{!10, !9}
